; ModuleID = '3/1762.c'
source_filename = "3/1762.c"
target datalayout = "e-m:e-p270:32:32-p271:32:32-p272:64:64-i64:64-f80:128-n8:16:32:64-S128"
target triple = "x86_64-pc-linux-gnu"

@.str = private unnamed_addr constant [6 x i8] c"%d %d\00", align 1
@.str.1 = private unnamed_addr constant [3 x i8] c"%d\00", align 1
@.str.2 = private unnamed_addr constant [4 x i8] c"yes\00", align 1
@.str.3 = private unnamed_addr constant [3 x i8] c"no\00", align 1

; Function Attrs: noinline nounwind uwtable
define dso_local i32 @main() #0 {
  %1 = alloca i32, align 4
  %2 = alloca i32, align 4
  %3 = alloca i32, align 4
  %4 = alloca [1000 x i32], align 16
  %5 = alloca i32, align 4
  %6 = alloca i32, align 4
  %7 = alloca i32, align 4
  %8 = alloca i32, align 4
  store i32 0, i32* %1, align 4
  %9 = call i32 (i8*, ...) @__isoc99_scanf(i8* getelementptr inbounds ([6 x i8], [6 x i8]* @.str, i64 0, i64 0), i32* %2, i32* %3)
  store i32 0, i32* %6, align 4
  br label %10

10:                                               ; preds = %19, %0
  %11 = load i32, i32* %6, align 4
  %12 = load i32, i32* %2, align 4
  %13 = icmp slt i32 %11, %12
  br i1 %13, label %14, label %22

14:                                               ; preds = %10
  %15 = load i32, i32* %6, align 4
  %16 = sext i32 %15 to i64
  %17 = getelementptr inbounds [1000 x i32], [1000 x i32]* %4, i64 0, i64 %16
  %18 = call i32 (i8*, ...) @__isoc99_scanf(i8* getelementptr inbounds ([3 x i8], [3 x i8]* @.str.1, i64 0, i64 0), i32* %17)
  br label %19

19:                                               ; preds = %14
  %20 = load i32, i32* %6, align 4
  %21 = add nsw i32 %20, 1
  store i32 %21, i32* %6, align 4
  br label %10

22:                                               ; preds = %10
  store i32 0, i32* %7, align 4
  br label %23

23:                                               ; preds = %56, %22
  %24 = load i32, i32* %7, align 4
  %25 = load i32, i32* %2, align 4
  %26 = icmp slt i32 %24, %25
  br i1 %26, label %27, label %59

27:                                               ; preds = %23
  store i32 1, i32* %8, align 4
  br label %28

28:                                               ; preds = %52, %27
  %29 = load i32, i32* %8, align 4
  %30 = load i32, i32* %2, align 4
  %31 = load i32, i32* %7, align 4
  %32 = sub nsw i32 %30, %31
  %33 = icmp slt i32 %29, %32
  br i1 %33, label %34, label %55

34:                                               ; preds = %28
  %35 = load i32, i32* %7, align 4
  %36 = sext i32 %35 to i64
  %37 = getelementptr inbounds [1000 x i32], [1000 x i32]* %4, i64 0, i64 %36
  %38 = load i32, i32* %37, align 4
  %39 = load i32, i32* %7, align 4
  %40 = load i32, i32* %8, align 4
  %41 = add nsw i32 %39, %40
  %42 = sext i32 %41 to i64
  %43 = getelementptr inbounds [1000 x i32], [1000 x i32]* %4, i64 0, i64 %42
  %44 = load i32, i32* %43, align 4
  %45 = add nsw i32 %38, %44
  store i32 %45, i32* %5, align 4
  %46 = load i32, i32* %5, align 4
  %47 = load i32, i32* %3, align 4
  %48 = icmp eq i32 %46, %47
  br i1 %48, label %49, label %51

49:                                               ; preds = %34
  %50 = call i32 (i8*, ...) @printf(i8* getelementptr inbounds ([4 x i8], [4 x i8]* @.str.2, i64 0, i64 0))
  store i32 0, i32* %1, align 4
  br label %61

51:                                               ; preds = %34
  br label %52

52:                                               ; preds = %51
  %53 = load i32, i32* %8, align 4
  %54 = add nsw i32 %53, 1
  store i32 %54, i32* %8, align 4
  br label %28

55:                                               ; preds = %28
  br label %56

56:                                               ; preds = %55
  %57 = load i32, i32* %7, align 4
  %58 = add nsw i32 %57, 1
  store i32 %58, i32* %7, align 4
  br label %23

59:                                               ; preds = %23
  %60 = call i32 (i8*, ...) @printf(i8* getelementptr inbounds ([3 x i8], [3 x i8]* @.str.3, i64 0, i64 0))
  store i32 0, i32* %1, align 4
  br label %61

61:                                               ; preds = %59, %49
  %62 = load i32, i32* %1, align 4
  ret i32 %62
}

declare dso_local i32 @__isoc99_scanf(i8*, ...) #1

declare dso_local i32 @printf(i8*, ...) #1


!llvm.module.flags = !{!0}
!llvm.ident = !{!1}

!0 = !{i32 1, !"wchar_size", i32 4}
!1 = !{!"clang version 10.0.0-4ubuntu1 "}
